; ModuleID = '56/1586.c'
source_filename = "56/1586.c"
target datalayout = "e-m:e-p270:32:32-p271:32:32-p272:64:64-i64:64-f80:128-n8:16:32:64-S128"
target triple = "x86_64-pc-linux-gnu"

@.str = private unnamed_addr constant [3 x i8] c"%d\00", align 1
@.str.1 = private unnamed_addr constant [11 x i8] c"%d%d%d%d%d\00", align 1
@.str.2 = private unnamed_addr constant [9 x i8] c"%d%d%d%d\00", align 1
@.str.3 = private unnamed_addr constant [7 x i8] c"%d%d%d\00", align 1
@.str.4 = private unnamed_addr constant [5 x i8] c"%d%d\00", align 1

; Function Attrs: noinline nounwind uwtable
define dso_local void @main() #0 {
  %1 = alloca i32, align 4
  %2 = alloca i32, align 4
  %3 = alloca i32, align 4
  %4 = alloca i32, align 4
  %5 = alloca i32, align 4
  %6 = alloca i32, align 4
  %7 = alloca i32, align 4
  %8 = call i32 (i8*, ...) @__isoc99_scanf(i8* getelementptr inbounds ([3 x i8], [3 x i8]* @.str, i64 0, i64 0), i32* %1)
  %9 = load i32, i32* %1, align 4
  %10 = sdiv i32 %9, 10000
  store i32 %10, i32* %2, align 4
  %11 = load i32, i32* %1, align 4
  %12 = load i32, i32* %2, align 4
  %13 = mul nsw i32 10000, %12
  %14 = sub nsw i32 %11, %13
  %15 = sdiv i32 %14, 1000
  store i32 %15, i32* %3, align 4
  %16 = load i32, i32* %1, align 4
  %17 = load i32, i32* %2, align 4
  %18 = mul nsw i32 10000, %17
  %19 = sub nsw i32 %16, %18
  %20 = load i32, i32* %3, align 4
  %21 = mul nsw i32 1000, %20
  %22 = sub nsw i32 %19, %21
  %23 = sdiv i32 %22, 100
  store i32 %23, i32* %4, align 4
  %24 = load i32, i32* %1, align 4
  %25 = load i32, i32* %2, align 4
  %26 = mul nsw i32 10000, %25
  %27 = sub nsw i32 %24, %26
  %28 = load i32, i32* %3, align 4
  %29 = mul nsw i32 1000, %28
  %30 = sub nsw i32 %27, %29
  %31 = load i32, i32* %4, align 4
  %32 = mul nsw i32 100, %31
  %33 = sub nsw i32 %30, %32
  %34 = sdiv i32 %33, 10
  store i32 %34, i32* %5, align 4
  %35 = load i32, i32* %1, align 4
  %36 = load i32, i32* %2, align 4
  %37 = mul nsw i32 10000, %36
  %38 = sub nsw i32 %35, %37
  %39 = load i32, i32* %3, align 4
  %40 = mul nsw i32 1000, %39
  %41 = sub nsw i32 %38, %40
  %42 = load i32, i32* %4, align 4
  %43 = mul nsw i32 100, %42
  %44 = sub nsw i32 %41, %43
  %45 = load i32, i32* %5, align 4
  %46 = mul nsw i32 10, %45
  %47 = sub nsw i32 %44, %46
  store i32 %47, i32* %6, align 4
  %48 = load i32, i32* %2, align 4
  %49 = icmp sgt i32 %48, 0
  br i1 %49, label %50, label %51

50:                                               ; preds = %0
  store i32 5, i32* %7, align 4
  br label %67

51:                                               ; preds = %0
  %52 = load i32, i32* %3, align 4
  %53 = icmp sgt i32 %52, 0
  br i1 %53, label %54, label %55

54:                                               ; preds = %51
  store i32 4, i32* %7, align 4
  br label %66

55:                                               ; preds = %51
  %56 = load i32, i32* %4, align 4
  %57 = icmp sgt i32 %56, 0
  br i1 %57, label %58, label %59

58:                                               ; preds = %55
  store i32 3, i32* %7, align 4
  br label %65

59:                                               ; preds = %55
  %60 = load i32, i32* %5, align 4
  %61 = icmp sgt i32 %60, 0
  br i1 %61, label %62, label %63

62:                                               ; preds = %59
  store i32 2, i32* %7, align 4
  br label %64

63:                                               ; preds = %59
  store i32 1, i32* %7, align 4
  br label %64

64:                                               ; preds = %63, %62
  br label %65

65:                                               ; preds = %64, %58
  br label %66

66:                                               ; preds = %65, %54
  br label %67

67:                                               ; preds = %66, %50
  %68 = load i32, i32* %7, align 4
  switch i32 %68, label %94 [
    i32 5, label %69
    i32 4, label %76
    i32 3, label %82
    i32 2, label %87
    i32 1, label %91
  ]

69:                                               ; preds = %67
  %70 = load i32, i32* %6, align 4
  %71 = load i32, i32* %5, align 4
  %72 = load i32, i32* %4, align 4
  %73 = load i32, i32* %3, align 4
  %74 = load i32, i32* %2, align 4
  %75 = call i32 (i8*, ...) @printf(i8* getelementptr inbounds ([11 x i8], [11 x i8]* @.str.1, i64 0, i64 0), i32 %70, i32 %71, i32 %72, i32 %73, i32 %74)
  br label %94

76:                                               ; preds = %67
  %77 = load i32, i32* %6, align 4
  %78 = load i32, i32* %5, align 4
  %79 = load i32, i32* %4, align 4
  %80 = load i32, i32* %3, align 4
  %81 = call i32 (i8*, ...) @printf(i8* getelementptr inbounds ([9 x i8], [9 x i8]* @.str.2, i64 0, i64 0), i32 %77, i32 %78, i32 %79, i32 %80)
  br label %94

82:                                               ; preds = %67
  %83 = load i32, i32* %6, align 4
  %84 = load i32, i32* %5, align 4
  %85 = load i32, i32* %4, align 4
  %86 = call i32 (i8*, ...) @printf(i8* getelementptr inbounds ([7 x i8], [7 x i8]* @.str.3, i64 0, i64 0), i32 %83, i32 %84, i32 %85)
  br label %94

87:                                               ; preds = %67
  %88 = load i32, i32* %6, align 4
  %89 = load i32, i32* %5, align 4
  %90 = call i32 (i8*, ...) @printf(i8* getelementptr inbounds ([5 x i8], [5 x i8]* @.str.4, i64 0, i64 0), i32 %88, i32 %89)
  br label %94

91:                                               ; preds = %67
  %92 = load i32, i32* %6, align 4
  %93 = call i32 (i8*, ...) @printf(i8* getelementptr inbounds ([3 x i8], [3 x i8]* @.str, i64 0, i64 0), i32 %92)
  br label %94

94:                                               ; preds = %67, %91, %87, %82, %76, %69
  ret void
}

declare dso_local i32 @__isoc99_scanf(i8*, ...) #1

declare dso_local i32 @printf(i8*, ...) #1


!llvm.module.flags = !{!0}
!llvm.ident = !{!1}

!0 = !{i32 1, !"wchar_size", i32 4}
!1 = !{!"clang version 10.0.0-4ubuntu1 "}
